target datalayout = "e-m:e-p270:32:32-p271:32:32-p272:64:64-i64:64-i128:128-f80:128-n8:16:32:64-S128"
target triple = "x86_64-pc-linux-gnu"

%"class.vcg::Point3" = type { [3 x float] }
%"class.vcg::Line3" = type { %"class.vcg::Point3", %"class.vcg::Point3" }
%"class.vcg::AxisMode" = type { %"class.vcg::TrackMode", %"class.vcg::Line3.15" }
%"class.vcg::TrackMode" = type { ptr }
%"class.vcg::Line3.15" = type { %"class.vcg::Point3", %"class.vcg::Point3" }

; Function Attrs: mustprogress nounwind uwtable
define linkonce_odr noundef nonnull align 4 dereferenceable(4) ptr @_ZNK3vcg6Point3IfEixEi(ptr noundef nonnull align 4 dereferenceable(12) %0, i32 noundef %1) #0 comdat align 2 {
  %3 = alloca ptr, align 8
  %4 = alloca i32, align 4
  store ptr %0, ptr %3, align 8
  store i32 %1, ptr %4, align 4
  %5 = load ptr, ptr %3, align 8
  %6 = getelementptr inbounds %"class.vcg::Point3", ptr %5, i32 0, i32 0
  %7 = load i32, ptr %4, align 4
  %8 = sext i32 %7 to i64
  %9 = getelementptr inbounds [3 x float], ptr %6, i64 0, i64 %8
  ret ptr %9
}

; Function Attrs: mustprogress nounwind uwtable
define linkonce_odr noundef nonnull align 4 dereferenceable(12) ptr @_ZNK3vcg5Line3IfLb1EE9DirectionEv(ptr noundef nonnull align 4 dereferenceable(24) %0) #0 comdat align 2 {
  %2 = alloca ptr, align 8
  store ptr %0, ptr %2, align 8
  %3 = load ptr, ptr %2, align 8
  %4 = getelementptr inbounds %"class.vcg::Line3.15", ptr %3, i32 0, i32 1
  ret ptr %4
}

; Function Attrs: mustprogress nounwind uwtable
define linkonce_odr void @_ZN3vcg6Point3IfE6ImportIfEEvRKNS0_IT_EE(ptr noundef nonnull align 4 dereferenceable(12) %0, ptr noundef nonnull align 4 dereferenceable(12) %1) #0 comdat align 2 {
  %3 = alloca ptr, align 8
  %4 = alloca ptr, align 8
  store ptr %0, ptr %3, align 8
  store ptr %1, ptr %4, align 8
  %5 = load ptr, ptr %3, align 8
  %6 = load ptr, ptr %4, align 8
  %7 = call noundef nonnull align 4 dereferenceable(4) ptr @_ZNK3vcg6Point3IfEixEi(ptr noundef nonnull align 4 dereferenceable(12) %6, i32 noundef 0)
  %8 = load float, ptr %7, align 4
  %9 = getelementptr inbounds %"class.vcg::Point3", ptr %5, i32 0, i32 0
  %10 = getelementptr inbounds [3 x float], ptr %9, i64 0, i64 0
  store float %8, ptr %10, align 4
  %11 = load ptr, ptr %4, align 8
  %12 = call noundef nonnull align 4 dereferenceable(4) ptr @_ZNK3vcg6Point3IfEixEi(ptr noundef nonnull align 4 dereferenceable(12) %11, i32 noundef 1)
  %13 = load float, ptr %12, align 4
  %14 = getelementptr inbounds %"class.vcg::Point3", ptr %5, i32 0, i32 0
  %15 = getelementptr inbounds [3 x float], ptr %14, i64 0, i64 1
  store float %13, ptr %15, align 4
  %16 = load ptr, ptr %4, align 8
  %17 = call noundef nonnull align 4 dereferenceable(4) ptr @_ZNK3vcg6Point3IfEixEi(ptr noundef nonnull align 4 dereferenceable(12) %16, i32 noundef 2)
  %18 = load float, ptr %17, align 4
  %19 = getelementptr inbounds %"class.vcg::Point3", ptr %5, i32 0, i32 0
  %20 = getelementptr inbounds [3 x float], ptr %19, i64 0, i64 2
  store float %18, ptr %20, align 4
  ret void
}

; Function Attrs: mustprogress nounwind uwtable
define linkonce_odr noundef nonnull align 4 dereferenceable(12) ptr @_ZNK3vcg5Line3IfLb1EE6OriginEv(ptr noundef nonnull align 4 dereferenceable(24) %0) #0 comdat align 2 {
  %2 = alloca ptr, align 8
  store ptr %0, ptr %2, align 8
  %3 = load ptr, ptr %2, align 8
  %4 = getelementptr inbounds %"class.vcg::Line3.15", ptr %3, i32 0, i32 0
  ret ptr %4
}

; Function Attrs: mustprogress uwtable
define linkonce_odr void @_ZN3vcg5Line3IfLb0EE6ImportIfLb1EEEvRKNS0_IT_XT0_EEE(ptr noundef nonnull align 4 dereferenceable(24) %0, ptr noundef nonnull align 4 dereferenceable(24) %1) #3 comdat align 2 {
  %3 = alloca ptr, align 8
  %4 = alloca ptr, align 8
  store ptr %0, ptr %3, align 8
  store ptr %1, ptr %4, align 8
  %5 = load ptr, ptr %3, align 8
  %6 = getelementptr inbounds %"class.vcg::Line3", ptr %5, i32 0, i32 0
  %7 = load ptr, ptr %4, align 8
  %8 = call noundef nonnull align 4 dereferenceable(12) ptr @_ZNK3vcg5Line3IfLb1EE6OriginEv(ptr noundef nonnull align 4 dereferenceable(24) %7)
  call void @_ZN3vcg6Point3IfE6ImportIfEEvRKNS0_IT_EE(ptr noundef nonnull align 4 dereferenceable(12) %6, ptr noundef nonnull align 4 dereferenceable(12) %8)
  %9 = getelementptr inbounds %"class.vcg::Line3", ptr %5, i32 0, i32 1
  %10 = load ptr, ptr %4, align 8
  %11 = call noundef nonnull align 4 dereferenceable(12) ptr @_ZNK3vcg5Line3IfLb1EE9DirectionEv(ptr noundef nonnull align 4 dereferenceable(24) %10)
  call void @_ZN3vcg6Point3IfE6ImportIfEEvRKNS0_IT_EE(ptr noundef nonnull align 4 dereferenceable(12) %9, ptr noundef nonnull align 4 dereferenceable(12) %11)
  ret void
}

; Function Attrs: mustprogress nounwind uwtable
define linkonce_odr void @_ZN3vcg6Point3IfEC2Ev(ptr noundef nonnull align 4 dereferenceable(12) %0) unnamed_addr #0 comdat align 2 {
  %2 = alloca ptr, align 8
  store ptr %0, ptr %2, align 8
  ret void
}

; Function Attrs: mustprogress uwtable
define linkonce_odr void @_ZN3vcg5Line3IfLb0EEC2ERKNS0_IfLb1EEE(ptr noundef nonnull align 4 dereferenceable(24) %0, ptr noundef nonnull align 4 dereferenceable(24) %1) unnamed_addr #3 comdat align 2 {
  %3 = alloca ptr, align 8
  %4 = alloca ptr, align 8
  store ptr %0, ptr %3, align 8
  store ptr %1, ptr %4, align 8
  %5 = load ptr, ptr %3, align 8
  %6 = getelementptr inbounds %"class.vcg::Line3", ptr %5, i32 0, i32 0
  call void @_ZN3vcg6Point3IfEC2Ev(ptr noundef nonnull align 4 dereferenceable(12) %6)
  %7 = getelementptr inbounds %"class.vcg::Line3", ptr %5, i32 0, i32 1
  call void @_ZN3vcg6Point3IfEC2Ev(ptr noundef nonnull align 4 dereferenceable(12) %7)
  %8 = load ptr, ptr %4, align 8
  call void @_ZN3vcg5Line3IfLb0EE6ImportIfLb1EEEvRKNS0_IT_XT0_EEE(ptr noundef nonnull align 4 dereferenceable(24) %5, ptr noundef nonnull align 4 dereferenceable(24) %8)
  ret void
}

; Function Attrs: mustprogress uwtable
define void @_ZN3vcg8AxisMode4DrawEPNS_9TrackballE(ptr noundef nonnull align 8 dereferenceable(32) %0, ptr noundef %1) unnamed_addr #3 align 2 {
  %3 = alloca ptr, align 8
  %4 = alloca ptr, align 8
  %5 = alloca %"class.vcg::Line3", align 8
  store ptr %0, ptr %3, align 8
  store ptr %1, ptr %4, align 8
  %6 = load ptr, ptr %3, align 8
  %7 = load ptr, ptr %4, align 8
  call void @_ZN3vcg10trackutils14DrawSphereIconEPNS_9TrackballEbb(ptr noundef %7, i1 noundef zeroext true, i1 noundef zeroext false)
  %8 = load ptr, ptr %4, align 8
  %9 = getelementptr inbounds %"class.vcg::AxisMode", ptr %6, i32 0, i32 1
  call void @_ZN3vcg5Line3IfLb0EEC2ERKNS0_IfLb1EEE(ptr noundef nonnull align 4 dereferenceable(24) %5, ptr noundef nonnull align 4 dereferenceable(24) %9)
  call void @_ZN3vcg10trackutils16DrawUglyAxisModeEPNS_9TrackballENS_5Line3IfLb0EEE(ptr noundef %8, ptr noundef byval(%"class.vcg::Line3") align 8 %5)
  ret void
}