; Function Attrs: mustprogress uwtable
define void @_ZN3vcg8AxisMode4DrawEPNS_9TrackballE(ptr nocapture noundef nonnull readonly align 8 dereferenceable(32) %0, ptr noundef %1) unnamed_addr #4 align 2 {
  %3 = alloca %"class.vcg::Line3", align 16
  tail call void @_ZN3vcg10trackutils14DrawSphereIconEPNS_9TrackballEbb(ptr noundef %1, i1 noundef zeroext true, i1 noundef zeroext false)
  %4 = getelementptr inbounds i8, ptr %0, i64 8
  %5 = load <4 x float>, ptr %4, align 8
  store <4 x float> %5, ptr %3, align 16
  %6 = getelementptr inbounds i8, ptr %0, i64 24
  %7 = getelementptr inbounds i8, ptr %3, i64 16
  %8 = load <2 x float>, ptr %6, align 8
  store <2 x float> %8, ptr %7, align 16
  tail call void @_ZN3vcg10trackutils16DrawUglyAxisModeEPNS_9TrackballENS_5Line3IfLb0EEE(ptr noundef %1, ptr noundef nonnull byval(%"class.vcg::Line3") align 8 %3)
  ret void
}